; Function Attrs: mustprogress uwtable
define internal noundef ptr @_ZNK32pxrInternal_v0_24__pxrReserved__8TfNotice18_StandardDelivererINS0_10_DelivererINS_9TfWeakPtrIZL29_TestSdfLayerTransferContentsvE15_ChangeListenerEENS_12TfAnyWeakPtrEMS4_FvRKNS_9SdfNotice15LayersDidChangeEES8_EEE17GetSenderWeakBaseEv(ptr noundef nonnull align 8 dereferenceable(34) %0) unnamed_addr #5 align 2 {
  %2 = getelementptr inbounds nuw i8, ptr %0, i64 56
  %3 = tail call noundef zeroext i1 @_ZNK32pxrInternal_v0_24__pxrReserved__12TfAnyWeakPtrcvbEv(ptr noundef nonnull align 8 dereferenceable(32) %2)
  br i1 %3, label %4, label %6

4:                                                ; preds = %1
  %5 = tail call noundef ptr @_ZNK32pxrInternal_v0_24__pxrReserved__12TfAnyWeakPtr11GetWeakBaseEv(ptr noundef nonnull align 8 dereferenceable(32) %2)
  br label %6

6:                                                ; preds = %1, %4
  %7 = phi ptr [ %5, %4 ], [ null, %1 ]
  ret ptr %7
}